target datalayout = "e-m:e-p270:32:32-p271:32:32-p272:64:64-i64:64-i128:128-f80:128-n8:16:32:64-S128"
target triple = "x86_64-pc-linux-gnu"

%struct.avifROData = type { ptr, i64 }
%struct.avifROStream = type { ptr, i64, i64, ptr, ptr }
%struct.avifBoxHeader = type { i64, [4 x i8] }
%struct.avifFileType = type { [4 x i8], i32, ptr, i32 }

@.str = private unnamed_addr constant [5 x i8] c"ftyp\00", align 1

; Function Attrs: nounwind uwtable
define hidden i32 @avifPeekCompatibleFileType(ptr noundef %0) #0 {
  %2 = alloca i32, align 4
  %3 = alloca ptr, align 8
  %4 = alloca %struct.avifROStream, align 8
  %5 = alloca %struct.avifROData, align 8
  %6 = alloca %struct.avifBoxHeader, align 8
  %7 = alloca %struct.avifFileType, align 8
  %8 = alloca i32, align 4
  store ptr %0, ptr %3, align 8
  %9 = load ptr, ptr %3, align 8
  %10 = getelementptr inbounds nuw %struct.avifROData, ptr %9, i32 0, i32 0
  %11 = load ptr, ptr %10, align 8
  %12 = getelementptr inbounds nuw %struct.avifROData, ptr %5, i32 0, i32 0
  store ptr %11, ptr %12, align 8
  %13 = load ptr, ptr %3, align 8
  %14 = getelementptr inbounds nuw %struct.avifROData, ptr %13, i32 0, i32 1
  %15 = load i64, ptr %14, align 8
  %16 = getelementptr inbounds nuw %struct.avifROData, ptr %5, i32 0, i32 1
  store i64 %15, ptr %16, align 8
  call void @avifROStreamStart(ptr noundef %4, ptr noundef %5, ptr noundef null, ptr noundef null)
  %17 = call i32 @avifROStreamReadBoxHeader(ptr noundef %4, ptr noundef %6)
  %18 = icmp ne i32 %17, 0
  br i1 %18, label %19, label %24

19:                                               ; preds = %1
  %20 = getelementptr inbounds nuw %struct.avifBoxHeader, ptr %6, i32 0, i32 1
  %21 = getelementptr inbounds [4 x i8], ptr %20, i64 0, i64 0
  %22 = call i32 @memcmp(ptr noundef %21, ptr noundef @.str, i64 noundef 4) #6
  %23 = icmp ne i32 %22, 0
  br i1 %23, label %24, label %25

24:                                               ; preds = %19, %1
  store i32 0, ptr %2, align 4
  br label %35

25:                                               ; preds = %19
  call void @llvm.memset.p0.i64(ptr align 8 %7, i8 0, i64 24, i1 false)
  %26 = call ptr @avifROStreamCurrent(ptr noundef %4)
  %27 = getelementptr inbounds nuw %struct.avifBoxHeader, ptr %6, i32 0, i32 0
  %28 = load i64, ptr %27, align 8
  %29 = call i32 @avifParseFileTypeBox(ptr noundef %7, ptr noundef %26, i64 noundef %28, ptr noundef null)
  store i32 %29, ptr %8, align 4
  %30 = load i32, ptr %8, align 4
  %31 = icmp ne i32 %30, 0
  br i1 %31, label %33, label %32

32:                                               ; preds = %25
  store i32 0, ptr %2, align 4
  br label %35

33:                                               ; preds = %25
  %34 = call i32 @avifFileTypeIsCompatible(ptr noundef %7)
  store i32 %34, ptr %2, align 4
  br label %35

35:                                               ; preds = %33, %32, %24
  %36 = load i32, ptr %2, align 4
  ret i32 %36
}