; Function Attrs: nounwind uwtable
define hidden range(i32 0, 2) i32 @avifPeekCompatibleFileType(ptr noundef readonly captures(none) %0) local_unnamed_addr #0 {
  %2 = alloca %struct.avifROStream, align 8
  %3 = alloca %struct.avifROData, align 8
  %4 = alloca %struct.avifBoxHeader, align 8
  %5 = alloca %struct.avifFileType, align 8
  %6 = load ptr, ptr %0, align 8
  store ptr %6, ptr %3, align 8
  %7 = getelementptr inbounds nuw i8, ptr %0, i64 8
  %8 = load i64, ptr %7, align 8
  %9 = getelementptr inbounds nuw i8, ptr %3, i64 8
  store i64 %8, ptr %9, align 8
  call void @avifROStreamStart(ptr noundef nonnull %2, ptr noundef nonnull %3, ptr noundef null, ptr noundef null) #13
  %10 = call i32 @avifROStreamReadBoxHeader(ptr noundef nonnull %2, ptr noundef nonnull %4) #13
  %.not = icmp ne i32 %10, 0
  %11 = getelementptr inbounds nuw i8, ptr %4, i64 8
  %lhsv = load i32, ptr %11, align 8
  %.not3 = icmp eq i32 %lhsv, 1887007846
  %or.cond = select i1 %.not, i1 %.not3, i1 false
  br i1 %or.cond, label %12, label %18

12:                                               ; preds = %1
  call void @llvm.memset.p0.i64(ptr noundef nonnull align 8 dereferenceable(24) %5, i8 0, i64 24, i1 false)
  %13 = call ptr @avifROStreamCurrent(ptr noundef nonnull %2) #13
  %14 = load i64, ptr %4, align 8
  %15 = call fastcc i32 @avifParseFileTypeBox(ptr noundef %5, ptr noundef %13, i64 noundef %14, ptr noundef null)
  %.not4 = icmp eq i32 %15, 0
  br i1 %.not4, label %18, label %16

16:                                               ; preds = %12
  %17 = call fastcc i32 @avifFileTypeIsCompatible(ptr noundef %5)
  br label %18

18:                                               ; preds = %12, %1, %16
  %.0 = phi i32 [ %17, %16 ], [ 0, %1 ], [ 0, %12 ]
  ret i32 %.0
}